; Function Attrs: nounwind uwtable
define internal ptr @unicode_ljust(ptr noundef %0, ptr noundef readonly captures(none) %1, i64 noundef %2) #0 {
  %4 = add i64 %2, -1
  %or.cond = icmp ult i64 %4, 2
  br i1 %or.cond, label %7, label %5

5:                                                ; preds = %3
  %6 = tail call i32 @_PyArg_CheckPositional(ptr noundef nonnull @.str.238, i64 noundef %2, i64 noundef 1, i64 noundef 2) #41
  %.not = icmp eq i32 %6, 0
  br i1 %.not, label %convert_uc.exit, label %7

7:                                                ; preds = %3, %5
  %8 = load ptr, ptr %1, align 8, !tbaa !183
  %9 = tail call ptr @_PyNumber_Index(ptr noundef %8) #41
  %.not21 = icmp eq ptr %9, null
  br i1 %.not21, label %Py_DECREF.exit.thread, label %10

10:                                               ; preds = %7
  %11 = tail call i64 @PyLong_AsSsize_t(ptr noundef nonnull %9) #41
  %12 = load i32, ptr %9, align 8, !tbaa !195
  %.not.i = icmp sgt i32 %12, -1
  br i1 %.not.i, label %13, label %Py_DECREF.exit

13:                                               ; preds = %10
  %14 = add nsw i32 %12, -1
  store i32 %14, ptr %9, align 8, !tbaa !195
  %15 = icmp eq i32 %14, 0
  br i1 %15, label %16, label %Py_DECREF.exit

16:                                               ; preds = %13
  tail call void @_Py_Dealloc(ptr noundef nonnull %9) #41
  br label %Py_DECREF.exit

Py_DECREF.exit:                                   ; preds = %16, %13, %10
  %17 = icmp eq i64 %11, -1
  br i1 %17, label %Py_DECREF.exit.thread, label %19

Py_DECREF.exit.thread:                            ; preds = %7, %Py_DECREF.exit
  %18 = tail call ptr @PyErr_Occurred() #41
  %.not22 = icmp eq ptr %18, null
  br i1 %.not22, label %19, label %convert_uc.exit

19:                                               ; preds = %Py_DECREF.exit.thread, %Py_DECREF.exit
  %.01731.ph = phi i64 [ %11, %Py_DECREF.exit ], [ -1, %Py_DECREF.exit.thread ]
  %20 = icmp slt i64 %2, 2
  br i1 %20, label %convert_uc.exit.thread, label %21

21:                                               ; preds = %19
  %22 = getelementptr i8, ptr %1, i64 8
  %23 = load ptr, ptr %22, align 8, !tbaa !183
  %24 = getelementptr i8, ptr %23, i64 8
  %.val7.i = load ptr, ptr %24, align 8, !tbaa !187
  %25 = getelementptr i8, ptr %.val7.i, i64 168
  %.val8.i = load i64, ptr %25, align 8, !tbaa !188
  %26 = and i64 %.val8.i, 268435456
  %.not.i25 = icmp eq i64 %26, 0
  br i1 %.not.i25, label %27, label %32

27:                                               ; preds = %21
  %28 = load ptr, ptr @PyExc_TypeError, align 8, !tbaa !183
  %29 = getelementptr inbounds nuw i8, ptr %.val7.i, i64 24
  %30 = load ptr, ptr %29, align 8, !tbaa !267
  %31 = tail call ptr (ptr, ptr, ...) @PyErr_Format(ptr noundef %28, ptr noundef nonnull @.str.285, ptr noundef %30) #41
  br label %convert_uc.exit

32:                                               ; preds = %21
  %33 = getelementptr i8, ptr %23, i64 16
  %.val9.i = load i64, ptr %33, align 8, !tbaa !197
  %.not6.i = icmp eq i64 %.val9.i, 1
  br i1 %.not6.i, label %36, label %34

34:                                               ; preds = %32
  %35 = load ptr, ptr @PyExc_TypeError, align 8, !tbaa !183
  tail call void @PyErr_SetString(ptr noundef %35, ptr noundef nonnull @.str.286) #41
  br label %convert_uc.exit

36:                                               ; preds = %32
  %37 = getelementptr inbounds nuw i8, ptr %23, i64 34
  %38 = load i16, ptr %37, align 2
  %39 = and i16 %38, 7
  %40 = and i16 %38, 8
  %.not.i19.i.i = icmp eq i16 %40, 0
  switch i16 %39, label %55 [
    i16 1, label %41
    i16 2, label %48
  ]

41:                                               ; preds = %36
  br i1 %.not.i19.i.i, label %44, label %42

42:                                               ; preds = %41
  %43 = and i16 %38, 16
  %.not.i.i.i.i = icmp eq i16 %43, 0
  %.0.v.i.i.i.i = select i1 %.not.i.i.i.i, i64 56, i64 40
  %.0.i.i.i.i = getelementptr i8, ptr %23, i64 %.0.v.i.i.i.i
  br label %_PyUnicode_DATA.exit.i.i

44:                                               ; preds = %41
  %45 = getelementptr i8, ptr %23, i64 56
  %.val4.i.i.i = load ptr, ptr %45, align 8, !tbaa !195
  br label %_PyUnicode_DATA.exit.i.i

_PyUnicode_DATA.exit.i.i:                         ; preds = %44, %42
  %.0.i.i.i = phi ptr [ %.0.i.i.i.i, %42 ], [ %.val4.i.i.i, %44 ]
  %46 = load i8, ptr %.0.i.i.i, align 1, !tbaa !195
  %47 = zext i8 %46 to i32
  br label %convert_uc.exit.thread

48:                                               ; preds = %36
  br i1 %.not.i19.i.i, label %51, label %49

49:                                               ; preds = %48
  %50 = and i16 %38, 16
  %.not.i.i12.i.i = icmp eq i16 %50, 0
  %.0.v.i.i13.i.i = select i1 %.not.i.i12.i.i, i64 56, i64 40
  %.0.i.i14.i.i = getelementptr i8, ptr %23, i64 %.0.v.i.i13.i.i
  br label %_PyUnicode_DATA.exit17.i.i

51:                                               ; preds = %48
  %52 = getelementptr i8, ptr %23, i64 56
  %.val4.i16.i.i = load ptr, ptr %52, align 8, !tbaa !195
  br label %_PyUnicode_DATA.exit17.i.i

_PyUnicode_DATA.exit17.i.i:                       ; preds = %51, %49
  %.0.i15.i.i = phi ptr [ %.0.i.i14.i.i, %49 ], [ %.val4.i16.i.i, %51 ]
  %53 = load i16, ptr %.0.i15.i.i, align 2, !tbaa !199
  %54 = zext i16 %53 to i32
  br label %convert_uc.exit.thread

55:                                               ; preds = %36
  br i1 %.not.i19.i.i, label %58, label %56

56:                                               ; preds = %55
  %57 = and i16 %38, 16
  %.not.i.i20.i.i = icmp eq i16 %57, 0
  %.0.v.i.i21.i.i = select i1 %.not.i.i20.i.i, i64 56, i64 40
  %.0.i.i22.i.i = getelementptr i8, ptr %23, i64 %.0.v.i.i21.i.i
  br label %_PyUnicode_DATA.exit25.i.i

58:                                               ; preds = %55
  %59 = getelementptr i8, ptr %23, i64 56
  %.val4.i24.i.i = load ptr, ptr %59, align 8, !tbaa !195
  br label %_PyUnicode_DATA.exit25.i.i

_PyUnicode_DATA.exit25.i.i:                       ; preds = %58, %56
  %.0.i23.i.i = phi ptr [ %.0.i.i22.i.i, %56 ], [ %.val4.i24.i.i, %58 ]
  %60 = load i32, ptr %.0.i23.i.i, align 4, !tbaa !200
  br label %convert_uc.exit.thread

convert_uc.exit.thread:                           ; preds = %_PyUnicode_DATA.exit.i.i, %_PyUnicode_DATA.exit17.i.i, %_PyUnicode_DATA.exit25.i.i, %19
  %.029 = phi i32 [ 32, %19 ], [ %60, %_PyUnicode_DATA.exit25.i.i ], [ %54, %_PyUnicode_DATA.exit17.i.i ], [ %47, %_PyUnicode_DATA.exit.i.i ]
  %61 = getelementptr i8, ptr %0, i64 16
  %.val8.i26 = load i64, ptr %61, align 8, !tbaa !197
  %.not.i27 = icmp slt i64 %.val8.i26, %.01731.ph
  br i1 %.not.i27, label %64, label %62

62:                                               ; preds = %convert_uc.exit.thread
  %63 = tail call fastcc ptr @unicode_result_unchanged(ptr noundef nonnull %0)
  br label %convert_uc.exit

64:                                               ; preds = %convert_uc.exit.thread
  %65 = sub i64 %.01731.ph, %.val8.i26
  %66 = tail call fastcc ptr @pad(ptr noundef nonnull %0, i64 noundef 0, i64 noundef %65, i32 noundef %.029)
  br label %convert_uc.exit

convert_uc.exit:                                  ; preds = %64, %62, %34, %27, %Py_DECREF.exit.thread, %5
  %.019 = phi ptr [ null, %5 ], [ null, %Py_DECREF.exit.thread ], [ null, %27 ], [ null, %34 ], [ %63, %62 ], [ %66, %64 ]
  ret ptr %.019
}